(dp0
S'aja'
p1
(dp2
S'batch'
p3
S'cd'
p4
sS'contactno'
p5
I32
sS'skillset'
p6
(lp7
S'dcs'
p8
asS'year'
p9
I3
sS'password'
p10
S'123'
p11
sS'type'
p12
(dp13
ssS'we'
p14
(dp15
S'batch'
p16
S'2'
p17
sS'contactno'
p18
I3
sS'skillset'
p19
(lp20
S'we'
p21
asS'year'
p22
I1
sS'password'
p23
S'12'
p24
sS'type'
p25
(dp26
ssS'root'
p27
(dp28
S'batch'
p29
S''
p30
sS'contactno'
p31
I0
sS'skillset'
p32
(lp33
sS'year'
p34
I0
sS'password'
p35
S'12345'
p36
sS'type'
p37
(dp38
S'project'
p39
(dp40
S'teammembers'
p41
(lp42
S'ram'
p43
aS'shyam'
p44
asS'likes'
p45
I0
sS'description'
p46
S'this is my project!'
p47
sS'comments'
p48
(lp49
S'Nice Project!'
p50
asS'author'
p51
g43
ssS'startup'
p52
(dp53
g46
S'this is my startup!'
p54
sS'skills'
p55
(lp56
sS'flag_intern'
p57
I0
sg48
(lp58
S'Nice Startup!'
p59
asS'ceo'
p60
g43
sg45
I0
sS'applicant_request'
p61
(lp62
sg41
(lp63
g43
ag44
assssS'rahul'
p64
(dp65
S'batch'
p66
S'b1'
p67
sS'contactno'
p68
I98765432
sS'skillset'
p69
(lp70
S'ruby'
p71
aS'python'
p72
asS'year'
p73
I2
sS'password'
p74
S'rahul123'
p75
sS'type'
p76
(dp77
ss.