(dp0
S'mukesh'
p1
(dp2
S'skillset'
p3
(lp4
S'php'
p5
aS'html'
p6
aS'css'
p7
aS'ruby'
p8
asS'password'
p9
S'12345'
p10
sS'type'
p11
(dp12
S'startup-manmade'
p13
(dp14
S'description'
p15
S'best startup'
p16
sS'ceo'
p17
S'me'
p18
sS'comments'
p19
(lp20
S'Nice project mukesh !'
p21
asS'skills'
p22
(lp23
S'php'
p24
aS'html'
p25
asS'likes'
p26
I1
sS'teammembers'
p27
(lp28
S'me'
p29
aS'raghav'
p30
assssS'avantika'
p31
(dp32
S'password'
p33
S'12345'
p34
sS'type'
p35
(dp36
S'project-unicon'
p37
(dp38
S'teammembers'
p39
(lp40
S'avantika'
p41
asS'likes'
p42
I4
sS'description'
p43
S'hey this is an awesome project !'
p44
sS'comments'
p45
(lp46
sS'author'
p47
S'avantika'
p48
ssS'startup-monor'
p49
(dp50
S'description'
p51
S'best startup'
p52
sS'skills'
p53
(lp54
S'php'
p55
aS'django'
p56
asS'flag_intern'
p57
I1
sS'comments'
p58
(lp59
sS'ceo'
p60
S'avantika'
p61
sS'likes'
p62
I0
sS'applicant_request'
p63
(lp64
S'avantika'
p65
aS'ajay'
p66
aS'ajay'
p67
asS'teammembers'
p68
(lp69
S'avantika'
p70
aS'ruksa'
p71
assS'startup-mannix'
p72
(dp73
S'description'
p74
S'best startup'
p75
sS'ceo'
p76
S'avantika'
p77
sS'comments'
p78
(lp79
sS'skills'
p80
(lp81
S'python'
p82
aS'django'
p83
asS'likes'
p84
I0
sS'teammembers'
p85
(lp86
S'avantika'
p87
aS'rupa'
p88
assssS'root'
p89
(dp90
S'password'
p91
S'12345'
p92
sS'type'
p93
(dp94
S'project'
p95
(dp96
S'teammembers'
p97
(lp98
S'ram'
p99
aS'shyam'
p100
asS'likes'
p101
I1
sS'description'
p102
S'this is my project!'
p103
sS'comments'
p104
(lp105
S'Nice Project!'
p106
asS'author'
p107
g99
ssS'startup'
p108
(dp109
S'ceo'
p110
g99
sg102
S'this is my startup!'
p111
sg101
I0
sg104
(lp112
S'Nice Startup!'
p113
aS'heya is working very fine !! uhuuuu !! '
p114
asg97
(lp115
g99
ag100
assssS'ajay'
p116
(dp117
S'batch'
p118
S'B1'
p119
sS'contactno'
p120
I9650995427
sS'skillset'
p121
(lp122
S'php'
p123
aS'python'
p124
asS'year'
p125
I1
sS'password'
p126
S'ajay123'
p127
sS'type'
p128
(dp129
ssS'soham'
p130
(dp131
S'batch'
p132
S'b2'
p133
sS'contactno'
p134
I987654321
sS'skillset'
p135
(lp136
S'php'
p137
aS'python'
p138
asS'year'
p139
I1
sS'password'
p140
S'12345'
p141
sS'type'
p142
(dp143
S'startup-fons'
p144
(dp145
S'description'
p146
S'best startup'
p147
sS'ceo'
p148
S'soham'
p149
sS'comments'
p150
(lp151
sS'skills'
p152
(lp153
S'django'
p154
aS'python'
p155
asS'likes'
p156
I1
sS'teammembers'
p157
(lp158
S'soham'
p159
aS'mohan'
p160
assssS'ekansh'
p161
(dp162
S'batch'
p163
S'b6'
p164
sS'contactno'
p165
I987654332
sS'skillset'
p166
(lp167
S'python'
p168
asS'year'
p169
I3
sS'password'
p170
S'123456'
p171
sS'type'
p172
(dp173
ssS'vijay'
p174
(dp175
S'batch'
p176
S'b2'
p177
sS'contactno'
p178
I987654321
sS'skillset'
p179
(lp180
S'python'
p181
aS'ruby'
p182
asS'year'
p183
I2
sS'password'
p184
S'vijay123'
p185
sS'type'
p186
(dp187
ssS'rahul'
p188
(dp189
S'password'
p190
S'rahul123'
p191
sS'type'
p192
(dp193
ss.